target datalayout = "e-m:e-p270:32:32-p271:32:32-p272:64:64-i64:64-i128:128-f80:128-n8:16:32:64-S128"
target triple = "x86_64-pc-linux-gnu"

%"class.llvm::DependenceInfo::Constraint" = type { i32, ptr, ptr, ptr, ptr, ptr }

; Function Attrs: mustprogress nounwind uwtable
define dso_local void @_ZN4llvm14DependenceInfo10Constraint7setLineEPKNS_4SCEVES4_S4_PKNS_4LoopE(ptr noundef nonnull align 8 dereferenceable(48) %0, ptr noundef %1, ptr noundef %2, ptr noundef %3, ptr noundef %4) #1 align 2 {
  %6 = alloca ptr, align 8
  %7 = alloca ptr, align 8
  %8 = alloca ptr, align 8
  %9 = alloca ptr, align 8
  %10 = alloca ptr, align 8
  store ptr %0, ptr %6, align 8
  store ptr %1, ptr %7, align 8
  store ptr %2, ptr %8, align 8
  store ptr %3, ptr %9, align 8
  store ptr %4, ptr %10, align 8
  %11 = load ptr, ptr %6, align 8
  %12 = getelementptr inbounds nuw %"class.llvm::DependenceInfo::Constraint", ptr %11, i32 0, i32 0
  store i32 3, ptr %12, align 8
  %13 = load ptr, ptr %7, align 8
  %14 = getelementptr inbounds nuw %"class.llvm::DependenceInfo::Constraint", ptr %11, i32 0, i32 2
  store ptr %13, ptr %14, align 8
  %15 = load ptr, ptr %8, align 8
  %16 = getelementptr inbounds nuw %"class.llvm::DependenceInfo::Constraint", ptr %11, i32 0, i32 3
  store ptr %15, ptr %16, align 8
  %17 = load ptr, ptr %9, align 8
  %18 = getelementptr inbounds nuw %"class.llvm::DependenceInfo::Constraint", ptr %11, i32 0, i32 4
  store ptr %17, ptr %18, align 8
  %19 = load ptr, ptr %10, align 8
  %20 = getelementptr inbounds nuw %"class.llvm::DependenceInfo::Constraint", ptr %11, i32 0, i32 5
  store ptr %19, ptr %20, align 8
  ret void
}