; Function Attrs: mustprogress nofree norecurse nosync nounwind willreturn memory(argmem: write) uwtable
define dso_local void @_ZN4llvm14DependenceInfo10Constraint7setLineEPKNS_4SCEVES4_S4_PKNS_4LoopE(ptr nocapture noundef nonnull writeonly align 8 dereferenceable(48) %0, ptr noundef %1, ptr noundef %2, ptr noundef %3, ptr noundef %4) local_unnamed_addr #9 align 2 {
  store i32 3, ptr %0, align 8
  %6 = getelementptr inbounds nuw i8, ptr %0, i64 16
  store ptr %1, ptr %6, align 8
  %7 = getelementptr inbounds nuw i8, ptr %0, i64 24
  store ptr %2, ptr %7, align 8
  %8 = getelementptr inbounds nuw i8, ptr %0, i64 32
  store ptr %3, ptr %8, align 8
  %9 = getelementptr inbounds nuw i8, ptr %0, i64 40
  store ptr %4, ptr %9, align 8
  ret void
}